; Function Attrs: mustprogress nofree norecurse nosync nounwind memory(readwrite, inaccessiblemem: none) uwtable
define noundef zeroext i1 @_ZN10open_spiel14colored_trails5Trade6reduceEv(ptr nocapture noundef nonnull readonly align 8 dereferenceable(48) %0) local_unnamed_addr #9 align 2 {
  %2 = getelementptr inbounds nuw i8, ptr %0, i64 8
  %3 = load ptr, ptr %2, align 8
  %4 = load ptr, ptr %0, align 8
  %.not = icmp eq ptr %3, %4
  br i1 %.not, label %._crit_edge, label %.lr.ph

.lr.ph:                                           ; preds = %1
  %5 = getelementptr inbounds nuw i8, ptr %0, i64 24
  br label %6

6:                                                ; preds = %.lr.ph, %6
  %indvars.iv = phi i64 [ 0, %.lr.ph ], [ %indvars.iv.next, %6 ]
  %7 = phi ptr [ %4, %.lr.ph ], [ %20, %6 ]
  %8 = getelementptr inbounds i32, ptr %7, i64 %indvars.iv
  %9 = load ptr, ptr %5, align 8
  %10 = getelementptr inbounds i32, ptr %9, i64 %indvars.iv
  %11 = load i32, ptr %10, align 4
  %12 = load i32, ptr %8, align 4
  %13 = tail call i32 @llvm.smin.i32(i32 %11, i32 %12)
  %14 = sub nsw i32 %12, %13
  store i32 %14, ptr %8, align 4
  %15 = load ptr, ptr %5, align 8
  %16 = getelementptr inbounds i32, ptr %15, i64 %indvars.iv
  %17 = load i32, ptr %16, align 4
  %18 = sub nsw i32 %17, %13
  store i32 %18, ptr %16, align 4
  %indvars.iv.next = add nuw nsw i64 %indvars.iv, 1
  %19 = load ptr, ptr %2, align 8
  %20 = load ptr, ptr %0, align 8
  %21 = ptrtoint ptr %19 to i64
  %22 = ptrtoint ptr %20 to i64
  %23 = sub i64 %21, %22
  %24 = ashr exact i64 %23, 2
  %25 = icmp ugt i64 %24, %indvars.iv.next
  br i1 %25, label %6, label %._crit_edge, !llvm.loop !45

._crit_edge:                                      ; preds = %6, %1
  %.lcssa23 = phi ptr [ %3, %1 ], [ %19, %6 ]
  %.lcssa22 = phi ptr [ %4, %1 ], [ %20, %6 ]
  %.not5.i = icmp eq ptr %.lcssa22, %.lcssa23
  br i1 %.not5.i, label %_ZSt10accumulateIN9__gnu_cxx17__normal_iteratorIPiSt6vectorIiSaIiEEEEiET0_T_S8_S7_.exit.thread, label %.lr.ph.i

.lr.ph.i:                                         ; preds = %._crit_edge, %.lr.ph.i
  %.07.i = phi i32 [ %27, %.lr.ph.i ], [ 0, %._crit_edge ]
  %.sroa.02.06.i = phi ptr [ %28, %.lr.ph.i ], [ %.lcssa22, %._crit_edge ]
  %26 = load i32, ptr %.sroa.02.06.i, align 4
  %27 = add nsw i32 %26, %.07.i
  %28 = getelementptr inbounds i8, ptr %.sroa.02.06.i, i64 4
  %.not.i = icmp eq ptr %28, %.lcssa23
  br i1 %.not.i, label %_ZSt10accumulateIN9__gnu_cxx17__normal_iteratorIPiSt6vectorIiSaIiEEEEiET0_T_S8_S7_.exit, label %.lr.ph.i, !llvm.loop !46

_ZSt10accumulateIN9__gnu_cxx17__normal_iteratorIPiSt6vectorIiSaIiEEEEiET0_T_S8_S7_.exit: ; preds = %.lr.ph.i
  %29 = icmp sgt i32 %27, 0
  br i1 %29, label %30, label %_ZSt10accumulateIN9__gnu_cxx17__normal_iteratorIPiSt6vectorIiSaIiEEEEiET0_T_S8_S7_.exit.thread

30:                                               ; preds = %_ZSt10accumulateIN9__gnu_cxx17__normal_iteratorIPiSt6vectorIiSaIiEEEEiET0_T_S8_S7_.exit
  %31 = getelementptr inbounds nuw i8, ptr %0, i64 24
  %32 = load ptr, ptr %31, align 8
  %33 = getelementptr inbounds i8, ptr %0, i64 32
  %34 = load ptr, ptr %33, align 8
  %.not5.i12 = icmp eq ptr %32, %34
  br i1 %.not5.i12, label %_ZSt10accumulateIN9__gnu_cxx17__normal_iteratorIPiSt6vectorIiSaIiEEEEiET0_T_S8_S7_.exit.thread, label %.lr.ph.i13

.lr.ph.i13:                                       ; preds = %30, %.lr.ph.i13
  %.07.i14 = phi i32 [ %36, %.lr.ph.i13 ], [ 0, %30 ]
  %.sroa.02.06.i15 = phi ptr [ %37, %.lr.ph.i13 ], [ %32, %30 ]
  %35 = load i32, ptr %.sroa.02.06.i15, align 4
  %36 = add nsw i32 %35, %.07.i14
  %37 = getelementptr inbounds i8, ptr %.sroa.02.06.i15, i64 4
  %.not.i16 = icmp eq ptr %37, %34
  br i1 %.not.i16, label %_ZSt10accumulateIN9__gnu_cxx17__normal_iteratorIPiSt6vectorIiSaIiEEEEiET0_T_S8_S7_.exit18.loopexit, label %.lr.ph.i13, !llvm.loop !46

_ZSt10accumulateIN9__gnu_cxx17__normal_iteratorIPiSt6vectorIiSaIiEEEEiET0_T_S8_S7_.exit18.loopexit: ; preds = %.lr.ph.i13
  %38 = icmp sgt i32 %36, 0
  br label %_ZSt10accumulateIN9__gnu_cxx17__normal_iteratorIPiSt6vectorIiSaIiEEEEiET0_T_S8_S7_.exit.thread

_ZSt10accumulateIN9__gnu_cxx17__normal_iteratorIPiSt6vectorIiSaIiEEEEiET0_T_S8_S7_.exit.thread: ; preds = %30, %_ZSt10accumulateIN9__gnu_cxx17__normal_iteratorIPiSt6vectorIiSaIiEEEEiET0_T_S8_S7_.exit18.loopexit, %._crit_edge, %_ZSt10accumulateIN9__gnu_cxx17__normal_iteratorIPiSt6vectorIiSaIiEEEEiET0_T_S8_S7_.exit
  %39 = phi i1 [ false, %_ZSt10accumulateIN9__gnu_cxx17__normal_iteratorIPiSt6vectorIiSaIiEEEEiET0_T_S8_S7_.exit ], [ false, %._crit_edge ], [ false, %30 ], [ %38, %_ZSt10accumulateIN9__gnu_cxx17__normal_iteratorIPiSt6vectorIiSaIiEEEEiET0_T_S8_S7_.exit18.loopexit ]
  ret i1 %39
}